
_clignoter:

;MyProject.c,28 :: 		void clignoter(){                                //2fois
;MyProject.c,29 :: 		for(i=0;i<2;i++){
	CLRF       _i+0
L_clignoter0:
	MOVLW      2
	SUBWF      _i+0, 0
	BTFSC      STATUS+0, 0
	GOTO       L_clignoter1
;MyProject.c,30 :: 		portb.rb1=1 ;
	BSF        PORTB+0, 1
;MyProject.c,31 :: 		portb.rb2=1 ;
	BSF        PORTB+0, 2
;MyProject.c,32 :: 		delay_ms(500);
	MOVLW      3
	MOVWF      R11+0
	MOVLW      138
	MOVWF      R12+0
	MOVLW      85
	MOVWF      R13+0
L_clignoter3:
	DECFSZ     R13+0, 1
	GOTO       L_clignoter3
	DECFSZ     R12+0, 1
	GOTO       L_clignoter3
	DECFSZ     R11+0, 1
	GOTO       L_clignoter3
	NOP
	NOP
;MyProject.c,33 :: 		portb.rb1=0 ;
	BCF        PORTB+0, 1
;MyProject.c,34 :: 		delay_ms(500);
	MOVLW      3
	MOVWF      R11+0
	MOVLW      138
	MOVWF      R12+0
	MOVLW      85
	MOVWF      R13+0
L_clignoter4:
	DECFSZ     R13+0, 1
	GOTO       L_clignoter4
	DECFSZ     R12+0, 1
	GOTO       L_clignoter4
	DECFSZ     R11+0, 1
	GOTO       L_clignoter4
	NOP
	NOP
;MyProject.c,29 :: 		for(i=0;i<2;i++){
	INCF       _i+0, 1
;MyProject.c,35 :: 		}
	GOTO       L_clignoter0
L_clignoter1:
;MyProject.c,36 :: 		portb.rb2=0 ;
	BCF        PORTB+0, 2
;MyProject.c,38 :: 		}
L_end_clignoter:
	RETURN
; end of _clignoter

_interrupt:
	MOVWF      R15+0
	SWAPF      STATUS+0, 0
	CLRF       STATUS+0
	MOVWF      ___saveSTATUS+0
	MOVF       PCLATH+0, 0
	MOVWF      ___savePCLATH+0
	CLRF       PCLATH+0

;MyProject.c,39 :: 		void interrupt(){
;MyProject.c,40 :: 		if(intcon.INTF) {
	BTFSS      INTCON+0, 1
	GOTO       L_interrupt5
;MyProject.c,41 :: 		porta.ra1=0;
	BCF        PORTA+0, 1
;MyProject.c,42 :: 		clignoter();
	CALL       _clignoter+0
;MyProject.c,44 :: 		}            intcon.INTF=0;
L_interrupt5:
	BCF        INTCON+0, 1
;MyProject.c,46 :: 		if(intcon.rbif) {
	BTFSS      INTCON+0, 0
	GOTO       L_interrupt6
;MyProject.c,47 :: 		if (portb.rb5==1){
	BTFSS      PORTB+0, 5
	GOTO       L_interrupt7
;MyProject.c,48 :: 		portb.rb6=1;
	BSF        PORTB+0, 6
;MyProject.c,49 :: 		portb.rb7=0;
	BCF        PORTB+0, 7
;MyProject.c,50 :: 		delay_ms(1000);
	MOVLW      6
	MOVWF      R11+0
	MOVLW      19
	MOVWF      R12+0
	MOVLW      173
	MOVWF      R13+0
L_interrupt8:
	DECFSZ     R13+0, 1
	GOTO       L_interrupt8
	DECFSZ     R12+0, 1
	GOTO       L_interrupt8
	DECFSZ     R11+0, 1
	GOTO       L_interrupt8
	NOP
	NOP
;MyProject.c,51 :: 		}else{
	GOTO       L_interrupt9
L_interrupt7:
;MyProject.c,52 :: 		portb.rb6=0;
	BCF        PORTB+0, 6
;MyProject.c,53 :: 		portb.rb7=0;
	BCF        PORTB+0, 7
;MyProject.c,54 :: 		delay_ms(100);
	MOVLW      130
	MOVWF      R12+0
	MOVLW      221
	MOVWF      R13+0
L_interrupt10:
	DECFSZ     R13+0, 1
	GOTO       L_interrupt10
	DECFSZ     R12+0, 1
	GOTO       L_interrupt10
	NOP
	NOP
;MyProject.c,55 :: 		}
L_interrupt9:
;MyProject.c,56 :: 		if (portb.rb4==1){
	BTFSS      PORTB+0, 4
	GOTO       L_interrupt11
;MyProject.c,57 :: 		portb.rb6=0;
	BCF        PORTB+0, 6
;MyProject.c,58 :: 		portb.rb7=1;
	BSF        PORTB+0, 7
;MyProject.c,59 :: 		delay_ms(1000);
	MOVLW      6
	MOVWF      R11+0
	MOVLW      19
	MOVWF      R12+0
	MOVLW      173
	MOVWF      R13+0
L_interrupt12:
	DECFSZ     R13+0, 1
	GOTO       L_interrupt12
	DECFSZ     R12+0, 1
	GOTO       L_interrupt12
	DECFSZ     R11+0, 1
	GOTO       L_interrupt12
	NOP
	NOP
;MyProject.c,60 :: 		}else{
	GOTO       L_interrupt13
L_interrupt11:
;MyProject.c,61 :: 		portb.rb6=0;
	BCF        PORTB+0, 6
;MyProject.c,62 :: 		portb.rb7=0;
	BCF        PORTB+0, 7
;MyProject.c,63 :: 		delay_ms(100);
	MOVLW      130
	MOVWF      R12+0
	MOVLW      221
	MOVWF      R13+0
L_interrupt14:
	DECFSZ     R13+0, 1
	GOTO       L_interrupt14
	DECFSZ     R12+0, 1
	GOTO       L_interrupt14
	NOP
	NOP
;MyProject.c,64 :: 		}
L_interrupt13:
;MyProject.c,66 :: 		}intcon.rbif=0;
L_interrupt6:
	BCF        INTCON+0, 0
;MyProject.c,67 :: 		if (intcon.T0IF){
	BTFSS      INTCON+0, 2
	GOTO       L_interrupt15
;MyProject.c,68 :: 		NB--;
	MOVLW      1
	SUBWF      _NB+0, 1
	BTFSS      STATUS+0, 0
	DECF       _NB+1, 1
;MyProject.c,69 :: 		if (NB==0){
	MOVLW      0
	XORWF      _NB+1, 0
	BTFSS      STATUS+0, 2
	GOTO       L__interrupt41
	MOVLW      0
	XORWF      _NB+0, 0
L__interrupt41:
	BTFSS      STATUS+0, 2
	GOTO       L_interrupt16
;MyProject.c,71 :: 		portc.rc0=~portc.rc0;
	MOVLW      1
	XORWF      PORTC+0, 1
;MyProject.c,75 :: 		NB=30;
	MOVLW      30
	MOVWF      _NB+0
	MOVLW      0
	MOVWF      _NB+1
;MyProject.c,76 :: 		TMR0=0;
	CLRF       TMR0+0
;MyProject.c,77 :: 		}
L_interrupt16:
;MyProject.c,79 :: 		intcon.T0IF=0;
	BCF        INTCON+0, 2
;MyProject.c,80 :: 		}
L_interrupt15:
;MyProject.c,83 :: 		}
L_end_interrupt:
L__interrupt40:
	MOVF       ___savePCLATH+0, 0
	MOVWF      PCLATH+0
	SWAPF      ___saveSTATUS+0, 0
	MOVWF      STATUS+0
	SWAPF      R15+0, 1
	SWAPF      R15+0, 0
	RETFIE
; end of _interrupt

_main:

;MyProject.c,84 :: 		void main(){
;MyProject.c,85 :: 		ADCON1=0x04;
	MOVLW      4
	MOVWF      ADCON1+0
;MyProject.c,86 :: 		Lcd_Init();                        // Initialize LCD
	CALL       _Lcd_Init+0
;MyProject.c,87 :: 		Lcd_Cmd(_LCD_CLEAR);               // Clear display
	MOVLW      1
	MOVWF      FARG_Lcd_Cmd_out_char+0
	CALL       _Lcd_Cmd+0
;MyProject.c,88 :: 		Lcd_Cmd(_LCD_CURSOR_OFF);          // Cursor off
	MOVLW      12
	MOVWF      FARG_Lcd_Cmd_out_char+0
	CALL       _Lcd_Cmd+0
;MyProject.c,90 :: 		intcon.GIE=1;   //global inetrrupt
	BSF        INTCON+0, 7
;MyProject.c,91 :: 		intcon.inte=1;  //inte=rb0
	BSF        INTCON+0, 4
;MyProject.c,92 :: 		intcon.rbie=1;
	BSF        INTCON+0, 3
;MyProject.c,93 :: 		intcon.T0IE=1;
	BSF        INTCON+0, 5
;MyProject.c,94 :: 		TMR0=0;
	CLRF       TMR0+0
;MyProject.c,95 :: 		option_reg = 0b00000111;
	MOVLW      7
	MOVWF      OPTION_REG+0
;MyProject.c,96 :: 		NB=30;
	MOVLW      30
	MOVWF      _NB+0
	MOVLW      0
	MOVWF      _NB+1
;MyProject.c,97 :: 		option_reg.intedg=1;   //activer l'interruption sur front montant
	BSF        OPTION_REG+0, 6
;MyProject.c,99 :: 		trisb=0b00111001;
	MOVLW      57
	MOVWF      TRISB+0
;MyProject.c,100 :: 		trisc=0b00000000;
	CLRF       TRISC+0
;MyProject.c,101 :: 		trisc = 0;
	CLRF       TRISC+0
;MyProject.c,103 :: 		portb.rb1=0;
	BCF        PORTB+0, 1
;MyProject.c,104 :: 		portb.rb2=0;
	BCF        PORTB+0, 2
;MyProject.c,105 :: 		portb.rb6=0;
	BCF        PORTB+0, 6
;MyProject.c,106 :: 		portb.rb7=0;
	BCF        PORTB+0, 7
;MyProject.c,107 :: 		portc = 0;
	CLRF       PORTC+0
;MyProject.c,108 :: 		Lcd_Cmd(_LCD_CLEAR);
	MOVLW      1
	MOVWF      FARG_Lcd_Cmd_out_char+0
	CALL       _Lcd_Cmd+0
;MyProject.c,109 :: 		delay_ms(100);
	MOVLW      130
	MOVWF      R12+0
	MOVLW      221
	MOVWF      R13+0
L_main17:
	DECFSZ     R13+0, 1
	GOTO       L_main17
	DECFSZ     R12+0, 1
	GOTO       L_main17
	NOP
	NOP
;MyProject.c,110 :: 		Lcd_Out(1,1,txt1);
	MOVLW      1
	MOVWF      FARG_Lcd_Out_row+0
	MOVLW      1
	MOVWF      FARG_Lcd_Out_column+0
	MOVLW      _txt1+0
	MOVWF      FARG_Lcd_Out_text+0
	CALL       _Lcd_Out+0
;MyProject.c,111 :: 		delay_ms(100);                 // Write text in first row
	MOVLW      130
	MOVWF      R12+0
	MOVLW      221
	MOVWF      R13+0
L_main18:
	DECFSZ     R13+0, 1
	GOTO       L_main18
	DECFSZ     R12+0, 1
	GOTO       L_main18
	NOP
	NOP
;MyProject.c,112 :: 		Lcd_Out(2,1,txt3);               // Write text in second row
	MOVLW      2
	MOVWF      FARG_Lcd_Out_row+0
	MOVLW      1
	MOVWF      FARG_Lcd_Out_column+0
	MOVLW      _txt3+0
	MOVWF      FARG_Lcd_Out_text+0
	CALL       _Lcd_Out+0
;MyProject.c,113 :: 		delay_ms(1000);
	MOVLW      6
	MOVWF      R11+0
	MOVLW      19
	MOVWF      R12+0
	MOVLW      173
	MOVWF      R13+0
L_main19:
	DECFSZ     R13+0, 1
	GOTO       L_main19
	DECFSZ     R12+0, 1
	GOTO       L_main19
	DECFSZ     R11+0, 1
	GOTO       L_main19
	NOP
	NOP
;MyProject.c,115 :: 		for(j = 0; j < 32; j++){
	CLRF       _j+0
L_main20:
	MOVLW      32
	SUBWF      _j+0, 0
	BTFSC      STATUS+0, 0
	GOTO       L_main21
;MyProject.c,116 :: 		EEPROM_Write(0x10+j, MD[j]);
	MOVF       _j+0, 0
	ADDLW      16
	MOVWF      FARG_EEPROM_Write_Address+0
	MOVF       _j+0, 0
	ADDLW      _MD+0
	MOVWF      FSR
	MOVF       INDF+0, 0
	MOVWF      FARG_EEPROM_Write_data_+0
	CALL       _EEPROM_Write+0
;MyProject.c,117 :: 		delay_ms(20);
	MOVLW      26
	MOVWF      R12+0
	MOVLW      248
	MOVWF      R13+0
L_main23:
	DECFSZ     R13+0, 1
	GOTO       L_main23
	DECFSZ     R12+0, 1
	GOTO       L_main23
	NOP
;MyProject.c,115 :: 		for(j = 0; j < 32; j++){
	INCF       _j+0, 1
;MyProject.c,118 :: 		}
	GOTO       L_main20
L_main21:
;MyProject.c,120 :: 		while(1){
L_main24:
;MyProject.c,121 :: 		t = ADC_Read(0);
	CLRF       FARG_ADC_Read_channel+0
	CALL       _ADC_Read+0
	MOVF       R0+0, 0
	MOVWF      _t+0
	MOVF       R0+1, 0
	MOVWF      _t+1
;MyProject.c,122 :: 		t=t*0.4887;
	CALL       _int2double+0
	MOVLW      227
	MOVWF      R4+0
	MOVLW      54
	MOVWF      R4+1
	MOVLW      122
	MOVWF      R4+2
	MOVLW      125
	MOVWF      R4+3
	CALL       _Mul_32x32_FP+0
	CALL       _double2int+0
	MOVF       R0+0, 0
	MOVWF      FLOC__main+0
	MOVF       R0+1, 0
	MOVWF      FLOC__main+1
	MOVF       FLOC__main+0, 0
	MOVWF      _t+0
	MOVF       FLOC__main+1, 0
	MOVWF      _t+1
;MyProject.c,123 :: 		temperature = t%10;
	MOVLW      10
	MOVWF      R4+0
	MOVLW      0
	MOVWF      R4+1
	MOVF       FLOC__main+0, 0
	MOVWF      R0+0
	MOVF       FLOC__main+1, 0
	MOVWF      R0+1
	CALL       _Div_16x16_S+0
	MOVF       R8+0, 0
	MOVWF      R0+0
	MOVF       R8+1, 0
	MOVWF      R0+1
	MOVF       R0+0, 0
	MOVWF      _temperature+0
;MyProject.c,124 :: 		lcd[2] = temperature + '0';
	MOVLW      48
	ADDWF      R0+0, 0
	MOVWF      _lcd+2
;MyProject.c,126 :: 		t=t/10;
	MOVLW      10
	MOVWF      R4+0
	MOVLW      0
	MOVWF      R4+1
	MOVF       FLOC__main+0, 0
	MOVWF      R0+0
	MOVF       FLOC__main+1, 0
	MOVWF      R0+1
	CALL       _Div_16x16_S+0
	MOVF       R0+0, 0
	MOVWF      FLOC__main+0
	MOVF       R0+1, 0
	MOVWF      FLOC__main+1
	MOVF       FLOC__main+0, 0
	MOVWF      _t+0
	MOVF       FLOC__main+1, 0
	MOVWF      _t+1
;MyProject.c,127 :: 		temperature=t%10;
	MOVLW      10
	MOVWF      R4+0
	MOVLW      0
	MOVWF      R4+1
	MOVF       FLOC__main+0, 0
	MOVWF      R0+0
	MOVF       FLOC__main+1, 0
	MOVWF      R0+1
	CALL       _Div_16x16_S+0
	MOVF       R8+0, 0
	MOVWF      R0+0
	MOVF       R8+1, 0
	MOVWF      R0+1
	MOVF       R0+0, 0
	MOVWF      _temperature+0
;MyProject.c,128 :: 		lcd[1] = temperature + '0';
	MOVLW      48
	ADDWF      R0+0, 0
	MOVWF      _lcd+1
;MyProject.c,130 :: 		t=t/10;
	MOVLW      10
	MOVWF      R4+0
	MOVLW      0
	MOVWF      R4+1
	MOVF       FLOC__main+0, 0
	MOVWF      R0+0
	MOVF       FLOC__main+1, 0
	MOVWF      R0+1
	CALL       _Div_16x16_S+0
	MOVF       R0+0, 0
	MOVWF      _t+0
	MOVF       R0+1, 0
	MOVWF      _t+1
;MyProject.c,131 :: 		temperature=t%10;
	MOVLW      10
	MOVWF      R4+0
	MOVLW      0
	MOVWF      R4+1
	CALL       _Div_16x16_S+0
	MOVF       R8+0, 0
	MOVWF      R0+0
	MOVF       R8+1, 0
	MOVWF      R0+1
	MOVF       R0+0, 0
	MOVWF      _temperature+0
;MyProject.c,132 :: 		lcd[0] = temperature + '0';
	MOVLW      48
	ADDWF      R0+0, 0
	MOVWF      _lcd+0
;MyProject.c,133 :: 		delay_ms(100);
	MOVLW      130
	MOVWF      R12+0
	MOVLW      221
	MOVWF      R13+0
L_main26:
	DECFSZ     R13+0, 1
	GOTO       L_main26
	DECFSZ     R12+0, 1
	GOTO       L_main26
	NOP
	NOP
;MyProject.c,134 :: 		Lcd_Cmd(_LCD_CLEAR);                 // Clear display
	MOVLW      1
	MOVWF      FARG_Lcd_Cmd_out_char+0
	CALL       _Lcd_Cmd+0
;MyProject.c,135 :: 		Lcd_out(1,1, txt2);
	MOVLW      1
	MOVWF      FARG_Lcd_Out_row+0
	MOVLW      1
	MOVWF      FARG_Lcd_Out_column+0
	MOVLW      _txt2+0
	MOVWF      FARG_Lcd_Out_text+0
	CALL       _Lcd_Out+0
;MyProject.c,136 :: 		delay_ms(20);
	MOVLW      26
	MOVWF      R12+0
	MOVLW      248
	MOVWF      R13+0
L_main27:
	DECFSZ     R13+0, 1
	GOTO       L_main27
	DECFSZ     R12+0, 1
	GOTO       L_main27
	NOP
;MyProject.c,137 :: 		Lcd_Out(2,1,lcd);
	MOVLW      2
	MOVWF      FARG_Lcd_Out_row+0
	MOVLW      1
	MOVWF      FARG_Lcd_Out_column+0
	MOVLW      _lcd+0
	MOVWF      FARG_Lcd_Out_text+0
	CALL       _Lcd_Out+0
;MyProject.c,138 :: 		Delay_ms(1000);
	MOVLW      6
	MOVWF      R11+0
	MOVLW      19
	MOVWF      R12+0
	MOVLW      173
	MOVWF      R13+0
L_main28:
	DECFSZ     R13+0, 1
	GOTO       L_main28
	DECFSZ     R12+0, 1
	GOTO       L_main28
	DECFSZ     R11+0, 1
	GOTO       L_main28
	NOP
	NOP
;MyProject.c,139 :: 		for(j = 0; j < 16; j++){
	CLRF       _j+0
L_main29:
	MOVLW      16
	SUBWF      _j+0, 0
	BTFSC      STATUS+0, 0
	GOTO       L_main30
;MyProject.c,140 :: 		array[j] = EEPROM_Read(0x10+j);
	MOVF       _j+0, 0
	ADDLW      _array+0
	MOVWF      FLOC__main+0
	MOVF       _j+0, 0
	ADDLW      16
	MOVWF      FARG_EEPROM_Read_Address+0
	CALL       _EEPROM_Read+0
	MOVF       FLOC__main+0, 0
	MOVWF      FSR
	MOVF       R0+0, 0
	MOVWF      INDF+0
;MyProject.c,141 :: 		delay_ms(20);
	MOVLW      26
	MOVWF      R12+0
	MOVLW      248
	MOVWF      R13+0
L_main32:
	DECFSZ     R13+0, 1
	GOTO       L_main32
	DECFSZ     R12+0, 1
	GOTO       L_main32
	NOP
;MyProject.c,139 :: 		for(j = 0; j < 16; j++){
	INCF       _j+0, 1
;MyProject.c,142 :: 		}
	GOTO       L_main29
L_main30:
;MyProject.c,143 :: 		Lcd_Cmd(_LCD_CLEAR);
	MOVLW      1
	MOVWF      FARG_Lcd_Cmd_out_char+0
	CALL       _Lcd_Cmd+0
;MyProject.c,144 :: 		Lcd_Out(1,1,array);
	MOVLW      1
	MOVWF      FARG_Lcd_Out_row+0
	MOVLW      1
	MOVWF      FARG_Lcd_Out_column+0
	MOVLW      _array+0
	MOVWF      FARG_Lcd_Out_text+0
	CALL       _Lcd_Out+0
;MyProject.c,145 :: 		for(j = 0; j < 16; j++){
	CLRF       _j+0
L_main33:
	MOVLW      16
	SUBWF      _j+0, 0
	BTFSC      STATUS+0, 0
	GOTO       L_main34
;MyProject.c,146 :: 		array[j] = EEPROM_Read(0x20+j);
	MOVF       _j+0, 0
	ADDLW      _array+0
	MOVWF      FLOC__main+0
	MOVF       _j+0, 0
	ADDLW      32
	MOVWF      FARG_EEPROM_Read_Address+0
	CALL       _EEPROM_Read+0
	MOVF       FLOC__main+0, 0
	MOVWF      FSR
	MOVF       R0+0, 0
	MOVWF      INDF+0
;MyProject.c,147 :: 		delay_ms(20);
	MOVLW      26
	MOVWF      R12+0
	MOVLW      248
	MOVWF      R13+0
L_main36:
	DECFSZ     R13+0, 1
	GOTO       L_main36
	DECFSZ     R12+0, 1
	GOTO       L_main36
	NOP
;MyProject.c,145 :: 		for(j = 0; j < 16; j++){
	INCF       _j+0, 1
;MyProject.c,148 :: 		}
	GOTO       L_main33
L_main34:
;MyProject.c,149 :: 		Lcd_Out(2,1,array);
	MOVLW      2
	MOVWF      FARG_Lcd_Out_row+0
	MOVLW      1
	MOVWF      FARG_Lcd_Out_column+0
	MOVLW      _array+0
	MOVWF      FARG_Lcd_Out_text+0
	CALL       _Lcd_Out+0
;MyProject.c,150 :: 		delay_ms(1000);
	MOVLW      6
	MOVWF      R11+0
	MOVLW      19
	MOVWF      R12+0
	MOVLW      173
	MOVWF      R13+0
L_main37:
	DECFSZ     R13+0, 1
	GOTO       L_main37
	DECFSZ     R12+0, 1
	GOTO       L_main37
	DECFSZ     R11+0, 1
	GOTO       L_main37
	NOP
	NOP
;MyProject.c,152 :: 		}
	GOTO       L_main24
;MyProject.c,153 :: 		}
L_end_main:
	GOTO       $+0
; end of _main
